target datalayout = "e-m:e-p270:32:32-p271:32:32-p272:64:64-i64:64-i128:128-f80:128-n8:16:32:64-S128"
target triple = "x86_64-pc-linux-gnu"

%struct.mspack_system = type { ptr, ptr, ptr, ptr, ptr, ptr, ptr, ptr, ptr, ptr, ptr }
%struct.oabd_file = type { ptr, ptr, i32, i64 }

@crc32_table = external constant [256 x i32], align 16

; Function Attrs: inlinehint nounwind uwtable
define internal i32 @crc32(i32 noundef %0, ptr noundef %1, i32 noundef %2) #4 {
  %4 = alloca i32, align 4
  %5 = alloca ptr, align 8
  %6 = alloca i32, align 4
  %7 = alloca ptr, align 8
  store i32 %0, ptr %4, align 4, !tbaa !28
  store ptr %1, ptr %5, align 8, !tbaa !33
  store i32 %2, ptr %6, align 4, !tbaa !28
  call void @llvm.lifetime.start.p0(i64 8, ptr %7) #5
  %8 = load ptr, ptr %5, align 8, !tbaa !33
  store ptr %8, ptr %7, align 8, !tbaa !22
  br label %9

9:                                                ; preds = %13, %3
  %10 = load i32, ptr %6, align 4, !tbaa !28
  %11 = add nsw i32 %10, -1
  store i32 %11, ptr %6, align 4, !tbaa !28
  %12 = icmp sge i32 %11, 0
  br i1 %12, label %13, label %27

13:                                               ; preds = %9
  %14 = load i32, ptr %4, align 4, !tbaa !28
  %15 = load ptr, ptr %7, align 8, !tbaa !22
  %16 = getelementptr inbounds nuw i8, ptr %15, i32 1
  store ptr %16, ptr %7, align 8, !tbaa !22
  %17 = load i8, ptr %15, align 1, !tbaa !31
  %18 = zext i8 %17 to i32
  %19 = xor i32 %14, %18
  %20 = and i32 %19, 255
  %21 = zext i32 %20 to i64
  %22 = getelementptr inbounds nuw [256 x i32], ptr @crc32_table, i64 0, i64 %21
  %23 = load i32, ptr %22, align 4, !tbaa !28
  %24 = load i32, ptr %4, align 4, !tbaa !28
  %25 = lshr i32 %24, 8
  %26 = xor i32 %23, %25
  store i32 %26, ptr %4, align 4, !tbaa !28
  br label %9

27:                                               ; preds = %9
  %28 = load i32, ptr %4, align 4, !tbaa !28
  call void @llvm.lifetime.end.p0(i64 8, ptr %7) #5
  ret i32 %28
}

; Function Attrs: nounwind uwtable
define internal i32 @oabd_sys_write(ptr noundef %0, ptr noundef %1, i32 noundef %2) #0 {
  %4 = alloca ptr, align 8
  %5 = alloca ptr, align 8
  %6 = alloca i32, align 4
  %7 = alloca ptr, align 8
  %8 = alloca i32, align 4
  store ptr %0, ptr %4, align 8, !tbaa !24
  store ptr %1, ptr %5, align 8, !tbaa !33
  store i32 %2, ptr %6, align 4, !tbaa !28
  call void @llvm.lifetime.start.p0(i64 8, ptr %7) #5
  %9 = load ptr, ptr %4, align 8, !tbaa !24
  store ptr %9, ptr %7, align 8, !tbaa !43
  call void @llvm.lifetime.start.p0(i64 4, ptr %8) #5
  %10 = load ptr, ptr %7, align 8, !tbaa !43
  %11 = getelementptr inbounds nuw %struct.oabd_file, ptr %10, i32 0, i32 0
  %12 = load ptr, ptr %11, align 8, !tbaa !35
  %13 = getelementptr inbounds nuw %struct.mspack_system, ptr %12, i32 0, i32 3
  %14 = load ptr, ptr %13, align 8, !tbaa !34
  %15 = load ptr, ptr %7, align 8, !tbaa !43
  %16 = getelementptr inbounds nuw %struct.oabd_file, ptr %15, i32 0, i32 1
  %17 = load ptr, ptr %16, align 8, !tbaa !38
  %18 = load ptr, ptr %5, align 8, !tbaa !33
  %19 = load i32, ptr %6, align 4, !tbaa !28
  %20 = call i32 %14(ptr noundef %17, ptr noundef %18, i32 noundef %19)
  store i32 %20, ptr %8, align 4, !tbaa !28
  %21 = load i32, ptr %8, align 4, !tbaa !28
  %22 = icmp sgt i32 %21, 0
  br i1 %22, label %23, label %32

23:                                               ; preds = %3
  %24 = load ptr, ptr %7, align 8, !tbaa !43
  %25 = getelementptr inbounds nuw %struct.oabd_file, ptr %24, i32 0, i32 2
  %26 = load i32, ptr %25, align 8, !tbaa !40
  %27 = load ptr, ptr %5, align 8, !tbaa !33
  %28 = load i32, ptr %8, align 4, !tbaa !28
  %29 = call i32 @crc32(i32 noundef %26, ptr noundef %27, i32 noundef %28)
  %30 = load ptr, ptr %7, align 8, !tbaa !43
  %31 = getelementptr inbounds nuw %struct.oabd_file, ptr %30, i32 0, i32 2
  store i32 %29, ptr %31, align 8, !tbaa !40
  br label %32

32:                                               ; preds = %23, %3
  %33 = load i32, ptr %8, align 4, !tbaa !28
  call void @llvm.lifetime.end.p0(i64 4, ptr %8) #5
  call void @llvm.lifetime.end.p0(i64 8, ptr %7) #5
  ret i32 %33
}