; Function Attrs: nounwind uwtable
define internal i32 @oabd_sys_write(ptr noundef captures(none) %0, ptr noundef %1, i32 noundef %2) #0 {
  %4 = load ptr, ptr %0, align 8, !tbaa !22
  %5 = getelementptr inbounds nuw i8, ptr %4, i64 24
  %6 = load ptr, ptr %5, align 8, !tbaa !21
  %7 = getelementptr inbounds nuw i8, ptr %0, i64 8
  %8 = load ptr, ptr %7, align 8, !tbaa !26
  %9 = tail call i32 %6(ptr noundef %8, ptr noundef %1, i32 noundef %2) #6
  %10 = icmp sgt i32 %9, 0
  br i1 %10, label %11, label %24

11:                                               ; preds = %3
  %12 = getelementptr inbounds nuw i8, ptr %0, i64 16
  %13 = load i32, ptr %12, align 8, !tbaa !29
  br label %14

14:                                               ; preds = %14, %11
  %.010.i = phi ptr [ %1, %11 ], [ %16, %14 ]
  %.059.i = phi i32 [ %9, %11 ], [ %15, %14 ]
  %.068.i = phi i32 [ %13, %11 ], [ %22, %14 ]
  %15 = add nsw i32 %.059.i, -1
  %16 = getelementptr inbounds nuw i8, ptr %.010.i, i64 1
  %17 = load i8, ptr %.010.i, align 1, !tbaa !27
  %.06.tr.i = trunc i32 %.068.i to i8
  %.narrow.i = xor i8 %17, %.06.tr.i
  %18 = zext i8 %.narrow.i to i64
  %19 = getelementptr inbounds nuw [256 x i32], ptr @crc32_table, i64 0, i64 %18
  %20 = load i32, ptr %19, align 4, !tbaa !32
  %21 = lshr i32 %.068.i, 8
  %22 = xor i32 %20, %21
  %23 = icmp samesign ugt i32 %.059.i, 1
  br i1 %23, label %14, label %crc32.exit

crc32.exit:                                       ; preds = %14
  store i32 %22, ptr %12, align 8, !tbaa !29
  br label %24

24:                                               ; preds = %crc32.exit, %3
  ret i32 %9
}